; Function Attrs: nounwind uwtable
define noundef ptr @lv_fs_get_drv(i8 noundef signext %0) local_unnamed_addr #0 {
  %2 = tail call ptr @lv_ll_get_head(ptr noundef nonnull getelementptr inbounds nuw (i8, ptr @lv_global, i64 832)) #6
  %.not6 = icmp eq ptr %2, null
  br i1 %.not6, label %._crit_edge, label %.lr.ph

.lr.ph:                                           ; preds = %1, %6
  %.07 = phi ptr [ %7, %6 ], [ %2, %1 ]
  %3 = load ptr, ptr %.07, align 8, !tbaa !3
  %4 = load i8, ptr %3, align 8, !tbaa !7
  %5 = icmp eq i8 %4, %0
  br i1 %5, label %._crit_edge, label %6

6:                                                ; preds = %.lr.ph
  %7 = tail call ptr @lv_ll_get_next(ptr noundef nonnull getelementptr inbounds nuw (i8, ptr @lv_global, i64 832), ptr noundef nonnull %.07) #6
  %.not = icmp eq ptr %7, null
  br i1 %.not, label %._crit_edge, label %.lr.ph, !llvm.loop !10

._crit_edge:                                      ; preds = %.lr.ph, %6, %1
  %.05 = phi ptr [ null, %1 ], [ null, %6 ], [ %3, %.lr.ph ]
  ret ptr %.05
}